target datalayout = "e-m:e-p270:32:32-p271:32:32-p272:64:64-i64:64-i128:128-f80:128-n8:16:32:64-S128"
target triple = "x86_64-pc-linux-gnu"

%struct.yyguts_t = type { ptr, ptr, ptr, i64, i64, ptr, i8, i32, i32, ptr, i32, i32, i32, i32, i32, ptr, i32, ptr, i32, i32, ptr, i32, i32 }
%struct.yy_buffer_state = type { ptr, ptr, ptr, i32, i32, i32, i32, i32, i32, i32, i32, i32 }

@.str.1 = private unnamed_addr constant [44 x i8] c"out of dynamic memory in yy_create_buffer()\00", align 1
@.str.11 = private unnamed_addr constant [49 x i8] c"out of dynamic memory in yyensure_buffer_stack()\00", align 1

; Function Attrs: mustprogress nounwind uwtable
define dso_local noundef ptr @_Z16cmExpr_yyreallocPvmS_(ptr noundef %0, i64 noundef %1, ptr noundef %2) #1 {
  %4 = alloca ptr, align 8
  %5 = alloca i64, align 8
  %6 = alloca ptr, align 8
  %7 = alloca ptr, align 8
  store ptr %0, ptr %4, align 8
  store i64 %1, ptr %5, align 8
  store ptr %2, ptr %6, align 8
  %8 = load ptr, ptr %6, align 8
  store ptr %8, ptr %7, align 8
  %9 = load ptr, ptr %4, align 8
  %10 = load i64, ptr %5, align 8
  %11 = call ptr @realloc(ptr noundef %9, i64 noundef %10) #19
  ret ptr %11
}

; Function Attrs: mustprogress nounwind uwtable
define dso_local noundef ptr @_Z14cmExpr_yyallocmPv(i64 noundef %0, ptr noundef %1) #1 {
  %3 = alloca i64, align 8
  %4 = alloca ptr, align 8
  %5 = alloca ptr, align 8
  store i64 %0, ptr %3, align 8
  store ptr %1, ptr %4, align 8
  %6 = load ptr, ptr %4, align 8
  store ptr %6, ptr %5, align 8
  %7 = load i64, ptr %3, align 8
  %8 = call noalias ptr @malloc(i64 noundef %7) #17
  ret ptr %8
}

; Function Attrs: mustprogress nounwind uwtable
define internal void @_ZL27cmExpr_yy_load_buffer_statePv(ptr noundef %0) #1 {
  %2 = alloca ptr, align 8
  %3 = alloca ptr, align 8
  store ptr %0, ptr %2, align 8
  %4 = load ptr, ptr %2, align 8
  store ptr %4, ptr %3, align 8
  %5 = load ptr, ptr %3, align 8
  %6 = getelementptr inbounds %struct.yyguts_t, ptr %5, i32 0, i32 5
  %7 = load ptr, ptr %6, align 8
  %8 = load ptr, ptr %3, align 8
  %9 = getelementptr inbounds %struct.yyguts_t, ptr %8, i32 0, i32 3
  %10 = load i64, ptr %9, align 8
  %11 = getelementptr inbounds ptr, ptr %7, i64 %10
  %12 = load ptr, ptr %11, align 8
  %13 = getelementptr inbounds %struct.yy_buffer_state, ptr %12, i32 0, i32 4
  %14 = load i32, ptr %13, align 4
  %15 = load ptr, ptr %3, align 8
  %16 = getelementptr inbounds %struct.yyguts_t, ptr %15, i32 0, i32 7
  store i32 %14, ptr %16, align 4
  %17 = load ptr, ptr %3, align 8
  %18 = getelementptr inbounds %struct.yyguts_t, ptr %17, i32 0, i32 5
  %19 = load ptr, ptr %18, align 8
  %20 = load ptr, ptr %3, align 8
  %21 = getelementptr inbounds %struct.yyguts_t, ptr %20, i32 0, i32 3
  %22 = load i64, ptr %21, align 8
  %23 = getelementptr inbounds ptr, ptr %19, i64 %22
  %24 = load ptr, ptr %23, align 8
  %25 = getelementptr inbounds %struct.yy_buffer_state, ptr %24, i32 0, i32 2
  %26 = load ptr, ptr %25, align 8
  %27 = load ptr, ptr %3, align 8
  %28 = getelementptr inbounds %struct.yyguts_t, ptr %27, i32 0, i32 9
  store ptr %26, ptr %28, align 8
  %29 = load ptr, ptr %3, align 8
  %30 = getelementptr inbounds %struct.yyguts_t, ptr %29, i32 0, i32 20
  store ptr %26, ptr %30, align 8
  %31 = load ptr, ptr %3, align 8
  %32 = getelementptr inbounds %struct.yyguts_t, ptr %31, i32 0, i32 5
  %33 = load ptr, ptr %32, align 8
  %34 = load ptr, ptr %3, align 8
  %35 = getelementptr inbounds %struct.yyguts_t, ptr %34, i32 0, i32 3
  %36 = load i64, ptr %35, align 8
  %37 = getelementptr inbounds ptr, ptr %33, i64 %36
  %38 = load ptr, ptr %37, align 8
  %39 = getelementptr inbounds %struct.yy_buffer_state, ptr %38, i32 0, i32 0
  %40 = load ptr, ptr %39, align 8
  %41 = load ptr, ptr %3, align 8
  %42 = getelementptr inbounds %struct.yyguts_t, ptr %41, i32 0, i32 1
  store ptr %40, ptr %42, align 8
  %43 = load ptr, ptr %3, align 8
  %44 = getelementptr inbounds %struct.yyguts_t, ptr %43, i32 0, i32 9
  %45 = load ptr, ptr %44, align 8
  %46 = load i8, ptr %45, align 1
  %47 = load ptr, ptr %3, align 8
  %48 = getelementptr inbounds %struct.yyguts_t, ptr %47, i32 0, i32 6
  store i8 %46, ptr %48, align 8
  ret void
}

; Function Attrs: mustprogress uwtable
define dso_local noundef ptr @_Z23cmExpr_yy_create_bufferP8_IO_FILEiPv(ptr noundef %0, i32 noundef %1, ptr noundef %2) #0 {
  %4 = alloca ptr, align 8
  %5 = alloca i32, align 4
  %6 = alloca ptr, align 8
  %7 = alloca ptr, align 8
  store ptr %0, ptr %4, align 8
  store i32 %1, ptr %5, align 4
  store ptr %2, ptr %6, align 8
  %8 = load ptr, ptr %6, align 8
  %9 = call noundef ptr @_Z14cmExpr_yyallocmPv(i64 noundef 64, ptr noundef %8)
  store ptr %9, ptr %7, align 8
  %10 = load ptr, ptr %7, align 8
  %11 = icmp ne ptr %10, null
  br i1 %11, label %14, label %12

12:                                               ; preds = %3
  %13 = load ptr, ptr %6, align 8
  call void @_ZL14yy_fatal_errorPKcPv(ptr noundef @.str.1, ptr noundef %13) #14
  unreachable

14:                                               ; preds = %3
  %15 = load i32, ptr %5, align 4
  %16 = load ptr, ptr %7, align 8
  %17 = getelementptr inbounds %struct.yy_buffer_state, ptr %16, i32 0, i32 3
  store i32 %15, ptr %17, align 8
  %18 = load ptr, ptr %7, align 8
  %19 = getelementptr inbounds %struct.yy_buffer_state, ptr %18, i32 0, i32 3
  %20 = load i32, ptr %19, align 8
  %21 = add nsw i32 %20, 2
  %22 = sext i32 %21 to i64
  %23 = load ptr, ptr %6, align 8
  %24 = call noundef ptr @_Z14cmExpr_yyallocmPv(i64 noundef %22, ptr noundef %23)
  %25 = load ptr, ptr %7, align 8
  %26 = getelementptr inbounds %struct.yy_buffer_state, ptr %25, i32 0, i32 1
  store ptr %24, ptr %26, align 8
  %27 = load ptr, ptr %7, align 8
  %28 = getelementptr inbounds %struct.yy_buffer_state, ptr %27, i32 0, i32 1
  %29 = load ptr, ptr %28, align 8
  %30 = icmp ne ptr %29, null
  br i1 %30, label %33, label %31

31:                                               ; preds = %14
  %32 = load ptr, ptr %6, align 8
  call void @_ZL14yy_fatal_errorPKcPv(ptr noundef @.str.1, ptr noundef %32) #14
  unreachable

33:                                               ; preds = %14
  %34 = load ptr, ptr %7, align 8
  %35 = getelementptr inbounds %struct.yy_buffer_state, ptr %34, i32 0, i32 5
  store i32 1, ptr %35, align 8
  %36 = load ptr, ptr %7, align 8
  %37 = load ptr, ptr %4, align 8
  %38 = load ptr, ptr %6, align 8
  call void @_ZL21cmExpr_yy_init_bufferP15yy_buffer_stateP8_IO_FILEPv(ptr noundef %36, ptr noundef %37, ptr noundef %38)
  %39 = load ptr, ptr %7, align 8
  ret ptr %39
}

; Function Attrs: mustprogress uwtable
define internal void @_ZL28cmExpr_yyensure_buffer_stackPv(ptr noundef %0) #0 {
  %2 = alloca ptr, align 8
  %3 = alloca i64, align 8
  %4 = alloca ptr, align 8
  %5 = alloca i64, align 8
  store ptr %0, ptr %2, align 8
  %6 = load ptr, ptr %2, align 8
  store ptr %6, ptr %4, align 8
  %7 = load ptr, ptr %4, align 8
  %8 = getelementptr inbounds %struct.yyguts_t, ptr %7, i32 0, i32 5
  %9 = load ptr, ptr %8, align 8
  %10 = icmp ne ptr %9, null
  br i1 %10, label %35, label %11

11:                                               ; preds = %1
  store i64 1, ptr %3, align 8
  %12 = load i64, ptr %3, align 8
  %13 = mul i64 %12, 8
  %14 = load ptr, ptr %2, align 8
  %15 = call noundef ptr @_Z14cmExpr_yyallocmPv(i64 noundef %13, ptr noundef %14)
  %16 = load ptr, ptr %4, align 8
  %17 = getelementptr inbounds %struct.yyguts_t, ptr %16, i32 0, i32 5
  store ptr %15, ptr %17, align 8
  %18 = load ptr, ptr %4, align 8
  %19 = getelementptr inbounds %struct.yyguts_t, ptr %18, i32 0, i32 5
  %20 = load ptr, ptr %19, align 8
  %21 = icmp ne ptr %20, null
  br i1 %21, label %24, label %22

22:                                               ; preds = %11
  %23 = load ptr, ptr %2, align 8
  call void @_ZL14yy_fatal_errorPKcPv(ptr noundef @.str.11, ptr noundef %23) #14
  unreachable

24:                                               ; preds = %11
  %25 = load ptr, ptr %4, align 8
  %26 = getelementptr inbounds %struct.yyguts_t, ptr %25, i32 0, i32 5
  %27 = load ptr, ptr %26, align 8
  %28 = load i64, ptr %3, align 8
  %29 = mul i64 %28, 8
  call void @llvm.memset.p0.i64(ptr align 8 %27, i8 0, i64 %29, i1 false)
  %30 = load i64, ptr %3, align 8
  %31 = load ptr, ptr %4, align 8
  %32 = getelementptr inbounds %struct.yyguts_t, ptr %31, i32 0, i32 4
  store i64 %30, ptr %32, align 8
  %33 = load ptr, ptr %4, align 8
  %34 = getelementptr inbounds %struct.yyguts_t, ptr %33, i32 0, i32 3
  store i64 0, ptr %34, align 8
  br label %78

35:                                               ; preds = %1
  %36 = load ptr, ptr %4, align 8
  %37 = getelementptr inbounds %struct.yyguts_t, ptr %36, i32 0, i32 3
  %38 = load i64, ptr %37, align 8
  %39 = load ptr, ptr %4, align 8
  %40 = getelementptr inbounds %struct.yyguts_t, ptr %39, i32 0, i32 4
  %41 = load i64, ptr %40, align 8
  %42 = sub i64 %41, 1
  %43 = icmp uge i64 %38, %42
  br i1 %43, label %44, label %78

44:                                               ; preds = %35
  store i64 8, ptr %5, align 8
  %45 = load ptr, ptr %4, align 8
  %46 = getelementptr inbounds %struct.yyguts_t, ptr %45, i32 0, i32 4
  %47 = load i64, ptr %46, align 8
  %48 = load i64, ptr %5, align 8
  %49 = add i64 %47, %48
  store i64 %49, ptr %3, align 8
  %50 = load ptr, ptr %4, align 8
  %51 = getelementptr inbounds %struct.yyguts_t, ptr %50, i32 0, i32 5
  %52 = load ptr, ptr %51, align 8
  %53 = load i64, ptr %3, align 8
  %54 = mul i64 %53, 8
  %55 = load ptr, ptr %2, align 8
  %56 = call noundef ptr @_Z16cmExpr_yyreallocPvmS_(ptr noundef %52, i64 noundef %54, ptr noundef %55)
  %57 = load ptr, ptr %4, align 8
  %58 = getelementptr inbounds %struct.yyguts_t, ptr %57, i32 0, i32 5
  store ptr %56, ptr %58, align 8
  %59 = load ptr, ptr %4, align 8
  %60 = getelementptr inbounds %struct.yyguts_t, ptr %59, i32 0, i32 5
  %61 = load ptr, ptr %60, align 8
  %62 = icmp ne ptr %61, null
  br i1 %62, label %65, label %63

63:                                               ; preds = %44
  %64 = load ptr, ptr %2, align 8
  call void @_ZL14yy_fatal_errorPKcPv(ptr noundef @.str.11, ptr noundef %64) #14
  unreachable

65:                                               ; preds = %44
  %66 = load ptr, ptr %4, align 8
  %67 = getelementptr inbounds %struct.yyguts_t, ptr %66, i32 0, i32 5
  %68 = load ptr, ptr %67, align 8
  %69 = load ptr, ptr %4, align 8
  %70 = getelementptr inbounds %struct.yyguts_t, ptr %69, i32 0, i32 4
  %71 = load i64, ptr %70, align 8
  %72 = getelementptr inbounds ptr, ptr %68, i64 %71
  %73 = load i64, ptr %5, align 8
  %74 = mul i64 %73, 8
  call void @llvm.memset.p0.i64(ptr align 8 %72, i8 0, i64 %74, i1 false)
  %75 = load i64, ptr %3, align 8
  %76 = load ptr, ptr %4, align 8
  %77 = getelementptr inbounds %struct.yyguts_t, ptr %76, i32 0, i32 4
  store i64 %75, ptr %77, align 8
  br label %78

78:                                               ; preds = %65, %35, %24
  ret void
}

; Function Attrs: mustprogress uwtable
define dso_local void @_Z16cmExpr_yyrestartP8_IO_FILEPv(ptr noundef %0, ptr noundef %1) #0 {
  %3 = alloca ptr, align 8
  %4 = alloca ptr, align 8
  %5 = alloca ptr, align 8
  store ptr %0, ptr %3, align 8
  store ptr %1, ptr %4, align 8
  %6 = load ptr, ptr %4, align 8
  store ptr %6, ptr %5, align 8
  %7 = load ptr, ptr %5, align 8
  %8 = getelementptr inbounds %struct.yyguts_t, ptr %7, i32 0, i32 5
  %9 = load ptr, ptr %8, align 8
  %10 = icmp ne ptr %9, null
  br i1 %10, label %11, label %20

11:                                               ; preds = %2
  %12 = load ptr, ptr %5, align 8
  %13 = getelementptr inbounds %struct.yyguts_t, ptr %12, i32 0, i32 5
  %14 = load ptr, ptr %13, align 8
  %15 = load ptr, ptr %5, align 8
  %16 = getelementptr inbounds %struct.yyguts_t, ptr %15, i32 0, i32 3
  %17 = load i64, ptr %16, align 8
  %18 = getelementptr inbounds ptr, ptr %14, i64 %17
  %19 = load ptr, ptr %18, align 8
  br label %21

20:                                               ; preds = %2
  br label %21

21:                                               ; preds = %20, %11
  %22 = phi ptr [ %19, %11 ], [ null, %20 ]
  %23 = icmp ne ptr %22, null
  br i1 %23, label %38, label %24

24:                                               ; preds = %21
  %25 = load ptr, ptr %4, align 8
  call void @_ZL28cmExpr_yyensure_buffer_stackPv(ptr noundef %25)
  %26 = load ptr, ptr %5, align 8
  %27 = getelementptr inbounds %struct.yyguts_t, ptr %26, i32 0, i32 1
  %28 = load ptr, ptr %27, align 8
  %29 = load ptr, ptr %4, align 8
  %30 = call noundef ptr @_Z23cmExpr_yy_create_bufferP8_IO_FILEiPv(ptr noundef %28, i32 noundef 16384, ptr noundef %29)
  %31 = load ptr, ptr %5, align 8
  %32 = getelementptr inbounds %struct.yyguts_t, ptr %31, i32 0, i32 5
  %33 = load ptr, ptr %32, align 8
  %34 = load ptr, ptr %5, align 8
  %35 = getelementptr inbounds %struct.yyguts_t, ptr %34, i32 0, i32 3
  %36 = load i64, ptr %35, align 8
  %37 = getelementptr inbounds ptr, ptr %33, i64 %36
  store ptr %30, ptr %37, align 8
  br label %38

38:                                               ; preds = %24, %21
  %39 = load ptr, ptr %5, align 8
  %40 = getelementptr inbounds %struct.yyguts_t, ptr %39, i32 0, i32 5
  %41 = load ptr, ptr %40, align 8
  %42 = icmp ne ptr %41, null
  br i1 %42, label %43, label %52

43:                                               ; preds = %38
  %44 = load ptr, ptr %5, align 8
  %45 = getelementptr inbounds %struct.yyguts_t, ptr %44, i32 0, i32 5
  %46 = load ptr, ptr %45, align 8
  %47 = load ptr, ptr %5, align 8
  %48 = getelementptr inbounds %struct.yyguts_t, ptr %47, i32 0, i32 3
  %49 = load i64, ptr %48, align 8
  %50 = getelementptr inbounds ptr, ptr %46, i64 %49
  %51 = load ptr, ptr %50, align 8
  br label %53

52:                                               ; preds = %38
  br label %53

53:                                               ; preds = %52, %43
  %54 = phi ptr [ %51, %43 ], [ null, %52 ]
  %55 = load ptr, ptr %3, align 8
  %56 = load ptr, ptr %4, align 8
  call void @_ZL21cmExpr_yy_init_bufferP15yy_buffer_stateP8_IO_FILEPv(ptr noundef %54, ptr noundef %55, ptr noundef %56)
  %57 = load ptr, ptr %4, align 8
  call void @_ZL27cmExpr_yy_load_buffer_statePv(ptr noundef %57)
  ret void
}